target datalayout = "e-m:e-p270:32:32-p271:32:32-p272:64:64-i64:64-i128:128-f80:128-n8:16:32:64-S128"
target triple = "x86_64-pc-linux-gnu"

%struct.lv_area_t = type { i32, i32, i32, i32 }

; Function Attrs: nounwind uwtable
define void @lv_area_join(ptr noundef %0, ptr noundef %1, ptr noundef %2) #0 {
  %4 = alloca ptr, align 8
  %5 = alloca ptr, align 8
  %6 = alloca ptr, align 8
  store ptr %0, ptr %4, align 8, !tbaa !3
  store ptr %1, ptr %5, align 8, !tbaa !3
  store ptr %2, ptr %6, align 8, !tbaa !3
  %7 = load ptr, ptr %5, align 8, !tbaa !3
  %8 = getelementptr inbounds nuw %struct.lv_area_t, ptr %7, i32 0, i32 0
  %9 = load i32, ptr %8, align 4, !tbaa !9
  %10 = load ptr, ptr %6, align 8, !tbaa !3
  %11 = getelementptr inbounds nuw %struct.lv_area_t, ptr %10, i32 0, i32 0
  %12 = load i32, ptr %11, align 4, !tbaa !9
  %13 = icmp slt i32 %9, %12
  br i1 %13, label %14, label %18

14:                                               ; preds = %3
  %15 = load ptr, ptr %5, align 8, !tbaa !3
  %16 = getelementptr inbounds nuw %struct.lv_area_t, ptr %15, i32 0, i32 0
  %17 = load i32, ptr %16, align 4, !tbaa !9
  br label %22

18:                                               ; preds = %3
  %19 = load ptr, ptr %6, align 8, !tbaa !3
  %20 = getelementptr inbounds nuw %struct.lv_area_t, ptr %19, i32 0, i32 0
  %21 = load i32, ptr %20, align 4, !tbaa !9
  br label %22

22:                                               ; preds = %18, %14
  %23 = phi i32 [ %17, %14 ], [ %21, %18 ]
  %24 = load ptr, ptr %4, align 8, !tbaa !3
  %25 = getelementptr inbounds nuw %struct.lv_area_t, ptr %24, i32 0, i32 0
  store i32 %23, ptr %25, align 4, !tbaa !9
  %26 = load ptr, ptr %5, align 8, !tbaa !3
  %27 = getelementptr inbounds nuw %struct.lv_area_t, ptr %26, i32 0, i32 1
  %28 = load i32, ptr %27, align 4, !tbaa !11
  %29 = load ptr, ptr %6, align 8, !tbaa !3
  %30 = getelementptr inbounds nuw %struct.lv_area_t, ptr %29, i32 0, i32 1
  %31 = load i32, ptr %30, align 4, !tbaa !11
  %32 = icmp slt i32 %28, %31
  br i1 %32, label %33, label %37

33:                                               ; preds = %22
  %34 = load ptr, ptr %5, align 8, !tbaa !3
  %35 = getelementptr inbounds nuw %struct.lv_area_t, ptr %34, i32 0, i32 1
  %36 = load i32, ptr %35, align 4, !tbaa !11
  br label %41

37:                                               ; preds = %22
  %38 = load ptr, ptr %6, align 8, !tbaa !3
  %39 = getelementptr inbounds nuw %struct.lv_area_t, ptr %38, i32 0, i32 1
  %40 = load i32, ptr %39, align 4, !tbaa !11
  br label %41

41:                                               ; preds = %37, %33
  %42 = phi i32 [ %36, %33 ], [ %40, %37 ]
  %43 = load ptr, ptr %4, align 8, !tbaa !3
  %44 = getelementptr inbounds nuw %struct.lv_area_t, ptr %43, i32 0, i32 1
  store i32 %42, ptr %44, align 4, !tbaa !11
  %45 = load ptr, ptr %5, align 8, !tbaa !3
  %46 = getelementptr inbounds nuw %struct.lv_area_t, ptr %45, i32 0, i32 2
  %47 = load i32, ptr %46, align 4, !tbaa !12
  %48 = load ptr, ptr %6, align 8, !tbaa !3
  %49 = getelementptr inbounds nuw %struct.lv_area_t, ptr %48, i32 0, i32 2
  %50 = load i32, ptr %49, align 4, !tbaa !12
  %51 = icmp sgt i32 %47, %50
  br i1 %51, label %52, label %56

52:                                               ; preds = %41
  %53 = load ptr, ptr %5, align 8, !tbaa !3
  %54 = getelementptr inbounds nuw %struct.lv_area_t, ptr %53, i32 0, i32 2
  %55 = load i32, ptr %54, align 4, !tbaa !12
  br label %60

56:                                               ; preds = %41
  %57 = load ptr, ptr %6, align 8, !tbaa !3
  %58 = getelementptr inbounds nuw %struct.lv_area_t, ptr %57, i32 0, i32 2
  %59 = load i32, ptr %58, align 4, !tbaa !12
  br label %60

60:                                               ; preds = %56, %52
  %61 = phi i32 [ %55, %52 ], [ %59, %56 ]
  %62 = load ptr, ptr %4, align 8, !tbaa !3
  %63 = getelementptr inbounds nuw %struct.lv_area_t, ptr %62, i32 0, i32 2
  store i32 %61, ptr %63, align 4, !tbaa !12
  %64 = load ptr, ptr %5, align 8, !tbaa !3
  %65 = getelementptr inbounds nuw %struct.lv_area_t, ptr %64, i32 0, i32 3
  %66 = load i32, ptr %65, align 4, !tbaa !13
  %67 = load ptr, ptr %6, align 8, !tbaa !3
  %68 = getelementptr inbounds nuw %struct.lv_area_t, ptr %67, i32 0, i32 3
  %69 = load i32, ptr %68, align 4, !tbaa !13
  %70 = icmp sgt i32 %66, %69
  br i1 %70, label %71, label %75

71:                                               ; preds = %60
  %72 = load ptr, ptr %5, align 8, !tbaa !3
  %73 = getelementptr inbounds nuw %struct.lv_area_t, ptr %72, i32 0, i32 3
  %74 = load i32, ptr %73, align 4, !tbaa !13
  br label %79

75:                                               ; preds = %60
  %76 = load ptr, ptr %6, align 8, !tbaa !3
  %77 = getelementptr inbounds nuw %struct.lv_area_t, ptr %76, i32 0, i32 3
  %78 = load i32, ptr %77, align 4, !tbaa !13
  br label %79

79:                                               ; preds = %75, %71
  %80 = phi i32 [ %74, %71 ], [ %78, %75 ]
  %81 = load ptr, ptr %4, align 8, !tbaa !3
  %82 = getelementptr inbounds nuw %struct.lv_area_t, ptr %81, i32 0, i32 3
  store i32 %80, ptr %82, align 4, !tbaa !13
  ret void
}