; Function Attrs: mustprogress nofree norecurse nosync nounwind willreturn memory(argmem: readwrite) uwtable
define void @lv_area_join(ptr noundef writeonly captures(none) initializes((0, 16)) %0, ptr noundef readonly captures(none) %1, ptr noundef readonly captures(none) %2) local_unnamed_addr #1 {
  %4 = load i32, ptr %1, align 4, !tbaa !3
  %5 = load i32, ptr %2, align 4, !tbaa !3
  %. = tail call i32 @llvm.smin.i32(i32 %4, i32 %5)
  store i32 %., ptr %0, align 4, !tbaa !3
  %6 = getelementptr inbounds nuw i8, ptr %1, i64 4
  %7 = load i32, ptr %6, align 4, !tbaa !8
  %8 = getelementptr inbounds nuw i8, ptr %2, i64 4
  %9 = load i32, ptr %8, align 4, !tbaa !8
  %10 = tail call i32 @llvm.smin.i32(i32 %7, i32 %9)
  %11 = getelementptr inbounds nuw i8, ptr %0, i64 4
  store i32 %10, ptr %11, align 4, !tbaa !8
  %12 = getelementptr inbounds nuw i8, ptr %1, i64 8
  %13 = load i32, ptr %12, align 4, !tbaa !9
  %14 = getelementptr inbounds nuw i8, ptr %2, i64 8
  %15 = load i32, ptr %14, align 4, !tbaa !9
  %16 = tail call i32 @llvm.smax.i32(i32 %13, i32 %15)
  %17 = getelementptr inbounds nuw i8, ptr %0, i64 8
  store i32 %16, ptr %17, align 4, !tbaa !9
  %18 = getelementptr inbounds nuw i8, ptr %1, i64 12
  %19 = load i32, ptr %18, align 4, !tbaa !10
  %20 = getelementptr inbounds nuw i8, ptr %2, i64 12
  %21 = load i32, ptr %20, align 4, !tbaa !10
  %22 = tail call i32 @llvm.smax.i32(i32 %19, i32 %21)
  %23 = getelementptr inbounds nuw i8, ptr %0, i64 12
  store i32 %22, ptr %23, align 4, !tbaa !10
  ret void
}